; Function Attrs: nounwind uwtable
define i32 @av_opt_set(ptr noundef %0, ptr noundef %1, ptr noundef %2, i32 noundef %3) local_unnamed_addr #2 {
  %5 = alloca ptr, align 8
  %6 = alloca ptr, align 8
  %7 = alloca ptr, align 8
  call void @llvm.lifetime.start.p0(i64 8, ptr nonnull %5) #18
  call void @llvm.lifetime.start.p0(i64 8, ptr nonnull %6) #18
  call void @llvm.lifetime.start.p0(i64 8, ptr nonnull %7) #18
  %8 = call fastcc i32 @opt_set_init(ptr noundef %0, ptr noundef %1, i32 noundef %3, i32 noundef 0, ptr noundef nonnull %6, ptr noundef nonnull %7, ptr noundef %5)
  %9 = icmp slt i32 %8, 0
  br i1 %9, label %19, label %10

10:                                               ; preds = %4
  %11 = load ptr, ptr %7, align 8, !tbaa !17
  %12 = getelementptr inbounds nuw i8, ptr %11, i64 20
  %13 = load i32, ptr %12, align 4, !tbaa !18
  %14 = and i32 %13, 65536
  %.not = icmp eq i32 %14, 0
  %15 = select i1 %.not, ptr @opt_set_elem, ptr @opt_set_array
  %16 = load ptr, ptr %6, align 8, !tbaa !19
  %17 = load ptr, ptr %5, align 8, !tbaa !19
  %18 = call i32 %15(ptr noundef %0, ptr noundef %16, ptr noundef %11, ptr noundef %2, ptr noundef %17) #18, !callees !20
  br label %19

19:                                               ; preds = %4, %10
  %.0 = phi i32 [ %18, %10 ], [ %8, %4 ]
  call void @llvm.lifetime.end.p0(i64 8, ptr nonnull %7) #18
  call void @llvm.lifetime.end.p0(i64 8, ptr nonnull %6) #18
  call void @llvm.lifetime.end.p0(i64 8, ptr nonnull %5) #18
  ret i32 %.0
}